target datalayout = "e-m:e-p270:32:32-p271:32:32-p272:64:64-i64:64-i128:128-f80:128-n8:16:32:64-S128"
target triple = "x86_64-pc-linux-gnu"

%"class.clang::CodeGen::Address" = type { %"class.llvm::PointerIntPair", ptr, %"class.clang::CharUnits", %"class.clang::CodeGen::CGPointerAuthInfo", ptr }
%"class.llvm::PointerIntPair" = type { %"struct.llvm::detail::PunnedPointer" }
%"struct.llvm::detail::PunnedPointer" = type { [8 x i8] }
%"class.clang::CharUnits" = type { i64 }
%"class.clang::CodeGen::CGPointerAuthInfo" = type { i8, ptr }
%"class.llvm::SmallVectorBase" = type { ptr, i32, i32 }
%"class.clang::CodeGen::EHScopeStack" = type { ptr, ptr, ptr, %"class.clang::CodeGen::EHScopeStack::stable_iterator", %"class.clang::CodeGen::EHScopeStack::stable_iterator", ptr, %"class.llvm::SmallVector.59" }
%"class.llvm::SmallVector.59" = type { %"class.llvm::SmallVectorImpl.60", %"struct.llvm::SmallVectorStorage.63" }
%"class.llvm::SmallVectorImpl.60" = type { %"class.llvm::SmallVectorTemplateBase.61" }
%"class.llvm::SmallVectorTemplateBase.61" = type { %"class.llvm::SmallVectorTemplateCommon.62" }
%"class.llvm::SmallVectorTemplateCommon.62" = type { %"class.llvm::SmallVectorBase" }
%"struct.llvm::SmallVectorStorage.63" = type { [256 x i8] }
%"class.clang::CodeGen::EHScopeStack::stable_iterator" = type { i64 }
%"class.clang::CodeGen::EHScopeStack::iterator" = type { ptr }
%union.anon.194 = type { %"class.clang::CodeGen::EHScope::CatchBitFields" }
%"class.clang::CodeGen::EHScope::CatchBitFields" = type { i32 }
%"class.clang::CodeGen::EHCleanupScope" = type <{ %"class.clang::CodeGen::EHScope.base", [4 x i8], %"class.clang::CodeGen::EHScopeStack::stable_iterator", %"class.clang::CodeGen::EHScopeStack::stable_iterator", ptr, %"class.clang::CodeGen::Address", ptr, ptr, i32, [4 x i8] }>
%"class.clang::CodeGen::EHScope.base" = type <{ ptr, ptr, %"class.clang::CodeGen::EHScopeStack::stable_iterator", %union.anon.194 }>
%"struct.clang::CodeGen::BranchFixup" = type { ptr, ptr, i32, ptr }

; Function Attrs: mustprogress nounwind uwtable
define linkonce_odr hidden noundef ptr @_ZN4llvm25SmallVectorTemplateCommonIN5clang7CodeGen11BranchFixupEvE5beginEv(ptr noundef nonnull align 8 dereferenceable(16) %0) #0 comdat align 2 {
  %2 = alloca ptr, align 8
  store ptr %0, ptr %2, align 8
  %3 = load ptr, ptr %2, align 8
  %4 = getelementptr inbounds nuw %"class.llvm::SmallVectorBase", ptr %3, i32 0, i32 0
  %5 = load ptr, ptr %4, align 8
  ret ptr %5
}

; Function Attrs: mustprogress nounwind uwtable
define linkonce_odr hidden noundef nonnull align 8 dereferenceable(124) ptr @_ZN4llvm16cast_convert_valIN5clang7CodeGen14EHCleanupScopeENS2_7EHScopeES4_E4doitERKS4_(ptr noundef nonnull align 8 dereferenceable(28) %0) #0 comdat align 2 {
  %2 = alloca ptr, align 8
  store ptr %0, ptr %2, align 8
  %3 = load ptr, ptr %2, align 8
  ret ptr %3
}

; Function Attrs: mustprogress nounwind uwtable
define linkonce_odr hidden noundef ptr @_ZN4llvm25SmallVectorTemplateCommonIN5clang7CodeGen11BranchFixupEvE3endEv(ptr noundef nonnull align 8 dereferenceable(16) %0) #0 comdat align 2 {
  %2 = alloca ptr, align 8
  store ptr %0, ptr %2, align 8
  %3 = load ptr, ptr %2, align 8
  %4 = call noundef ptr @_ZN4llvm25SmallVectorTemplateCommonIN5clang7CodeGen11BranchFixupEvE5beginEv(ptr noundef nonnull align 8 dereferenceable(16) %3)
  %5 = call noundef i64 @_ZNK4llvm15SmallVectorBaseIjE4sizeEv(ptr noundef nonnull align 8 dereferenceable(16) %3)
  %6 = getelementptr inbounds %"struct.clang::CodeGen::BranchFixup", ptr %4, i64 %5
  ret ptr %6
}

; Function Attrs: mustprogress nounwind uwtable
define linkonce_odr hidden noundef nonnull align 8 dereferenceable(124) ptr @_ZN4llvm8CastInfoIN5clang7CodeGen14EHCleanupScopeENS2_7EHScopeEvE6doCastERKS4_(ptr noundef nonnull align 8 dereferenceable(28) %0) #0 comdat align 2 {
  %2 = alloca ptr, align 8
  store ptr %0, ptr %2, align 8
  %3 = load ptr, ptr %2, align 8
  %4 = call noundef nonnull align 8 dereferenceable(124) ptr @_ZN4llvm16cast_convert_valIN5clang7CodeGen14EHCleanupScopeENS2_7EHScopeES4_E4doitERKS4_(ptr noundef nonnull align 8 dereferenceable(28) %3)
  ret ptr %4
}

; Function Attrs: mustprogress nounwind uwtable
define linkonce_odr hidden noundef ptr @_ZNK5clang7CodeGen12EHScopeStack8iterator3getEv(ptr noundef nonnull align 8 dereferenceable(8) %0) #0 comdat align 2 {
  %2 = alloca ptr, align 8
  store ptr %0, ptr %2, align 8
  %3 = load ptr, ptr %2, align 8
  %4 = getelementptr inbounds nuw %"class.clang::CodeGen::EHScopeStack::iterator", ptr %3, i32 0, i32 0
  %5 = load ptr, ptr %4, align 8
  ret ptr %5
}

; Function Attrs: mustprogress nounwind uwtable
define linkonce_odr hidden void @_ZN5clang7CodeGen12EHScopeStack8iteratorC2EPc(ptr noundef nonnull align 8 dereferenceable(8) %0, ptr noundef %1) unnamed_addr #0 comdat align 2 {
  %3 = alloca ptr, align 8
  %4 = alloca ptr, align 8
  store ptr %0, ptr %3, align 8
  store ptr %1, ptr %4, align 8
  %5 = load ptr, ptr %3, align 8
  %6 = getelementptr inbounds nuw %"class.clang::CodeGen::EHScopeStack::iterator", ptr %5, i32 0, i32 0
  %7 = load ptr, ptr %4, align 8
  store ptr %7, ptr %6, align 8
  ret void
}

; Function Attrs: mustprogress nounwind uwtable
define linkonce_odr hidden void @_ZN4llvm23SmallVectorTemplateBaseIN5clang7CodeGen11BranchFixupELb1EE8pop_backEv(ptr noundef nonnull align 8 dereferenceable(16) %0) #0 comdat align 2 {
  %2 = alloca ptr, align 8
  store ptr %0, ptr %2, align 8
  %3 = load ptr, ptr %2, align 8
  %4 = call noundef i64 @_ZNK4llvm15SmallVectorBaseIjE4sizeEv(ptr noundef nonnull align 8 dereferenceable(16) %3)
  %5 = sub i64 %4, 1
  call void @_ZN4llvm15SmallVectorBaseIjE8set_sizeEm(ptr noundef nonnull align 8 dereferenceable(16) %3, i64 noundef %5)
  ret void
}

; Function Attrs: mustprogress nounwind uwtable
define linkonce_odr hidden noundef nonnull align 8 dereferenceable(32) ptr @_ZN4llvm25SmallVectorTemplateCommonIN5clang7CodeGen11BranchFixupEvE4backEv(ptr noundef nonnull align 8 dereferenceable(16) %0) #0 comdat align 2 {
  %2 = alloca ptr, align 8
  store ptr %0, ptr %2, align 8
  %3 = load ptr, ptr %2, align 8
  %4 = call noundef ptr @_ZN4llvm25SmallVectorTemplateCommonIN5clang7CodeGen11BranchFixupEvE3endEv(ptr noundef nonnull align 8 dereferenceable(16) %3)
  %5 = getelementptr inbounds %"struct.clang::CodeGen::BranchFixup", ptr %4, i64 -1
  ret ptr %5
}

; Function Attrs: mustprogress nounwind uwtable
define linkonce_odr hidden noundef i32 @_ZNK5clang7CodeGen14EHCleanupScope13getFixupDepthEv(ptr noundef nonnull align 8 dereferenceable(124) %0) #0 comdat align 2 {
  %2 = alloca ptr, align 8
  store ptr %0, ptr %2, align 8
  %3 = load ptr, ptr %2, align 8
  %4 = getelementptr inbounds nuw %"class.clang::CodeGen::EHCleanupScope", ptr %3, i32 0, i32 8
  %5 = load i32, ptr %4, align 8
  ret i32 %5
}

; Function Attrs: mustprogress nounwind uwtable
define linkonce_odr hidden noundef nonnull align 8 dereferenceable(124) ptr @_ZN4llvm4castIN5clang7CodeGen14EHCleanupScopeENS2_7EHScopeEEEDcRT0_(ptr noundef nonnull align 8 dereferenceable(28) %0) #0 comdat {
  %2 = alloca ptr, align 8
  store ptr %0, ptr %2, align 8
  %3 = load ptr, ptr %2, align 8
  %4 = call noundef nonnull align 8 dereferenceable(124) ptr @_ZN4llvm8CastInfoIN5clang7CodeGen14EHCleanupScopeENS2_7EHScopeEvE6doCastERKS4_(ptr noundef nonnull align 8 dereferenceable(28) %3)
  ret ptr %4
}

; Function Attrs: mustprogress nounwind uwtable
define linkonce_odr hidden noundef nonnull align 8 dereferenceable(28) ptr @_ZNK5clang7CodeGen12EHScopeStack8iteratordeEv(ptr noundef nonnull align 8 dereferenceable(8) %0) #0 comdat align 2 {
  %2 = alloca ptr, align 8
  store ptr %0, ptr %2, align 8
  %3 = load ptr, ptr %2, align 8
  %4 = call noundef ptr @_ZNK5clang7CodeGen12EHScopeStack8iterator3getEv(ptr noundef nonnull align 8 dereferenceable(8) %3)
  ret ptr %4
}

; Function Attrs: mustprogress nounwind uwtable
define linkonce_odr hidden ptr @_ZNK5clang7CodeGen12EHScopeStack4findENS1_15stable_iteratorE(ptr noundef nonnull align 8 dereferenceable(320) %0, i64 %1) #0 comdat align 2 {
  %3 = alloca %"class.clang::CodeGen::EHScopeStack::iterator", align 8
  %4 = alloca %"class.clang::CodeGen::EHScopeStack::stable_iterator", align 8
  %5 = alloca ptr, align 8
  %6 = getelementptr inbounds nuw %"class.clang::CodeGen::EHScopeStack::stable_iterator", ptr %4, i32 0, i32 0
  store i64 %1, ptr %6, align 8
  store ptr %0, ptr %5, align 8
  %7 = load ptr, ptr %5, align 8
  %8 = getelementptr inbounds nuw %"class.clang::CodeGen::EHScopeStack", ptr %7, i32 0, i32 1
  %9 = load ptr, ptr %8, align 8
  %10 = getelementptr inbounds nuw %"class.clang::CodeGen::EHScopeStack::stable_iterator", ptr %4, i32 0, i32 0
  %11 = load i64, ptr %10, align 8
  %12 = sub i64 0, %11
  %13 = getelementptr inbounds i8, ptr %9, i64 %12
  call void @_ZN5clang7CodeGen12EHScopeStack8iteratorC2EPc(ptr noundef nonnull align 8 dereferenceable(8) %3, ptr noundef %13)
  %14 = getelementptr inbounds nuw %"class.clang::CodeGen::EHScopeStack::iterator", ptr %3, i32 0, i32 0
  %15 = load ptr, ptr %14, align 8
  ret ptr %15
}

; Function Attrs: mustprogress nounwind uwtable
define dso_local void @_ZN5clang7CodeGen12EHScopeStack13popNullFixupsEv(ptr noundef nonnull align 8 dereferenceable(320) %0) #0 align 2 {
  %2 = alloca ptr, align 8
  %3 = alloca %"class.clang::CodeGen::EHScopeStack::iterator", align 8
  %4 = alloca %"class.clang::CodeGen::EHScopeStack::stable_iterator", align 8
  %5 = alloca i32, align 4
  store ptr %0, ptr %2, align 8
  %6 = load ptr, ptr %2, align 8
  %7 = getelementptr inbounds nuw %"class.clang::CodeGen::EHScopeStack", ptr %6, i32 0, i32 3
  call void @llvm.memcpy.p0.p0.i64(ptr align 8 %4, ptr align 8 %7, i64 8, i1 false)
  %8 = getelementptr inbounds nuw %"class.clang::CodeGen::EHScopeStack::stable_iterator", ptr %4, i32 0, i32 0
  %9 = load i64, ptr %8, align 8
  %10 = call ptr @_ZNK5clang7CodeGen12EHScopeStack4findENS1_15stable_iteratorE(ptr noundef nonnull align 8 dereferenceable(320) %6, i64 %9)
  %11 = getelementptr inbounds nuw %"class.clang::CodeGen::EHScopeStack::iterator", ptr %3, i32 0, i32 0
  store ptr %10, ptr %11, align 8
  %12 = call noundef nonnull align 8 dereferenceable(28) ptr @_ZNK5clang7CodeGen12EHScopeStack8iteratordeEv(ptr noundef nonnull align 8 dereferenceable(8) %3)
  %13 = call noundef nonnull align 8 dereferenceable(124) ptr @_ZN4llvm4castIN5clang7CodeGen14EHCleanupScopeENS2_7EHScopeEEEDcRT0_(ptr noundef nonnull align 8 dereferenceable(28) %12)
  %14 = call noundef i32 @_ZNK5clang7CodeGen14EHCleanupScope13getFixupDepthEv(ptr noundef nonnull align 8 dereferenceable(124) %13)
  store i32 %14, ptr %5, align 4
  br label %15

15:                                               ; preds = %29, %1
  %16 = getelementptr inbounds nuw %"class.clang::CodeGen::EHScopeStack", ptr %6, i32 0, i32 6
  %17 = call noundef i64 @_ZNK4llvm15SmallVectorBaseIjE4sizeEv(ptr noundef nonnull align 8 dereferenceable(16) %16)
  %18 = load i32, ptr %5, align 4
  %19 = zext i32 %18 to i64
  %20 = icmp ugt i64 %17, %19
  br i1 %20, label %21, label %27

21:                                               ; preds = %15
  %22 = getelementptr inbounds nuw %"class.clang::CodeGen::EHScopeStack", ptr %6, i32 0, i32 6
  %23 = call noundef nonnull align 8 dereferenceable(32) ptr @_ZN4llvm25SmallVectorTemplateCommonIN5clang7CodeGen11BranchFixupEvE4backEv(ptr noundef nonnull align 8 dereferenceable(16) %22)
  %24 = getelementptr inbounds nuw %"struct.clang::CodeGen::BranchFixup", ptr %23, i32 0, i32 1
  %25 = load ptr, ptr %24, align 8
  %26 = icmp eq ptr %25, null
  br label %27

27:                                               ; preds = %21, %15
  %28 = phi i1 [ false, %15 ], [ %26, %21 ]
  br i1 %28, label %29, label %31

29:                                               ; preds = %27
  %30 = getelementptr inbounds nuw %"class.clang::CodeGen::EHScopeStack", ptr %6, i32 0, i32 6
  call void @_ZN4llvm23SmallVectorTemplateBaseIN5clang7CodeGen11BranchFixupELb1EE8pop_backEv(ptr noundef nonnull align 8 dereferenceable(16) %30)
  br label %15, !llvm.loop !10

31:                                               ; preds = %27
  ret void
}