; Function Attrs: mustprogress nounwind uwtable
define dso_local void @_ZN5clang7CodeGen12EHScopeStack13popNullFixupsEv(ptr noundef nonnull align 8 dereferenceable(320) %0) local_unnamed_addr #1 align 2 {
  %2 = getelementptr inbounds nuw i8, ptr %0, i64 24
  %.sroa.0.0.copyload = load i64, ptr %2, align 8
  %3 = getelementptr inbounds nuw i8, ptr %0, i64 8
  %4 = load ptr, ptr %3, align 8
  %5 = sub i64 0, %.sroa.0.0.copyload
  %6 = getelementptr inbounds i8, ptr %4, i64 %5
  %7 = getelementptr inbounds nuw i8, ptr %6, i64 120
  %8 = load i32, ptr %7, align 8
  %9 = getelementptr inbounds nuw i8, ptr %0, i64 48
  %10 = tail call noundef i64 @_ZNK4llvm15SmallVectorBaseIjE4sizeEv(ptr noundef nonnull align 8 dereferenceable(16) %9) #19
  %11 = zext i32 %8 to i64
  %12 = icmp ugt i64 %10, %11
  br i1 %12, label %.lr.ph, label %.critedge

.lr.ph:                                           ; preds = %1, %19
  %13 = load ptr, ptr %9, align 8
  %14 = tail call noundef i64 @_ZNK4llvm15SmallVectorBaseIjE4sizeEv(ptr noundef nonnull align 8 dereferenceable(16) %9) #19
  %15 = getelementptr inbounds %"struct.clang::CodeGen::BranchFixup", ptr %13, i64 %14
  %16 = getelementptr inbounds i8, ptr %15, i64 -24
  %17 = load ptr, ptr %16, align 8
  %18 = icmp eq ptr %17, null
  br i1 %18, label %19, label %.critedge

19:                                               ; preds = %.lr.ph
  %20 = tail call noundef i64 @_ZNK4llvm15SmallVectorBaseIjE4sizeEv(ptr noundef nonnull align 8 dereferenceable(16) %9) #19
  %21 = add i64 %20, -1
  tail call void @_ZN4llvm15SmallVectorBaseIjE8set_sizeEm(ptr noundef nonnull align 8 dereferenceable(16) %9, i64 noundef %21) #19
  %22 = tail call noundef i64 @_ZNK4llvm15SmallVectorBaseIjE4sizeEv(ptr noundef nonnull align 8 dereferenceable(16) %9) #19
  %23 = icmp ugt i64 %22, %11
  br i1 %23, label %.lr.ph, label %.critedge, !llvm.loop !28

.critedge:                                        ; preds = %.lr.ph, %19, %1
  ret void
}